; Function Attrs: mustprogress uwtable
define void @_ZN11SearchFrame19findFrameWithFilterER7QString(ptr noundef nonnull align 8 dereferenceable(104) %0, ptr noundef nonnull align 8 dereferenceable(24) %1) local_unnamed_addr #0 align 2 {
  tail call void @_ZN14AccordionFrame12animatedShowEv(ptr noundef nonnull align 8 dereferenceable(56) %0)
  %3 = getelementptr inbounds i8, ptr %0, i64 56
  %4 = load ptr, ptr %3, align 8
  %5 = getelementptr inbounds i8, ptr %4, i64 48
  %6 = load ptr, ptr %5, align 8
  tail call void @_ZN7QWidget8setFocusEN2Qt11FocusReasonE(ptr noundef nonnull align 8 dereferenceable(40) %6, i32 noundef 7)
  %7 = load ptr, ptr %3, align 8
  %8 = getelementptr inbounds i8, ptr %7, i64 48
  %9 = load ptr, ptr %8, align 8
  tail call void @_ZN9QLineEdit7setTextERK7QString(ptr noundef nonnull align 8 dereferenceable(40) %9, ptr noundef nonnull align 8 dereferenceable(24) %1)
  %10 = load ptr, ptr %3, align 8
  %11 = getelementptr inbounds i8, ptr %10, i64 48
  %12 = load ptr, ptr %11, align 8
  tail call void @_ZN9QLineEdit17setCursorPositionEi(ptr noundef nonnull align 8 dereferenceable(40) %12, i32 noundef 0)
  %13 = load ptr, ptr %3, align 8
  %14 = getelementptr inbounds i8, ptr %13, i64 40
  %15 = load ptr, ptr %14, align 8
  tail call void @_ZN9QComboBox15setCurrentIndexEi(ptr noundef nonnull align 8 dereferenceable(40) %15, i32 noundef 0)
  tail call void @_ZN11SearchFrame13updateWidgetsEv(ptr noundef nonnull align 8 dereferenceable(104) %0)
  tail call void @_ZN11SearchFrame21on_findButton_clickedEv(ptr noundef nonnull align 8 dereferenceable(104) %0)
  ret void
}